target datalayout = "e-m:e-p270:32:32-p271:32:32-p272:64:64-i64:64-i128:128-f80:128-n8:16:32:64-S128"
target triple = "x86_64-pc-linux-gnu"

@.str.238 = private unnamed_addr constant [109 x i8] c"PDCP NR: Invalid key string (%s) - should include 32 ASCII hex characters (16 bytes) but only %u chars given\00", align 1
@.str.239 = private unnamed_addr constant [40 x i8] c"PDCP-NR: Invalid char '%c' given in key\00", align 1
@.str.240 = private unnamed_addr constant [80 x i8] c"PDCP-NR: Key (%s) should contain 32 hex characters (16 bytes) but more detected\00", align 1
@.str.241 = private unnamed_addr constant [78 x i8] c"PDCP-NR: Key (%s) should contain 32 hex characters (16 bytes) but %u detected\00", align 1

; Function Attrs: nounwind null_pointer_is_valid sspstrong uwtable
define internal zeroext i8 @hex_ascii_to_binary(i8 noundef signext %0) #6 {
  %2 = alloca i8, align 1
  %3 = alloca i8, align 1
  store i8 %0, ptr %3, align 1
  %4 = load i8, ptr %3, align 1
  %5 = sext i8 %4 to i32
  %6 = icmp sge i32 %5, 48
  br i1 %6, label %7, label %16

7:                                                ; preds = %1
  %8 = load i8, ptr %3, align 1
  %9 = sext i8 %8 to i32
  %10 = icmp sle i32 %9, 57
  br i1 %10, label %11, label %16

11:                                               ; preds = %7
  %12 = load i8, ptr %3, align 1
  %13 = sext i8 %12 to i32
  %14 = sub i32 %13, 48
  %15 = trunc i32 %14 to i8
  store i8 %15, ptr %2, align 1
  br label %45

16:                                               ; preds = %7, %1
  %17 = load i8, ptr %3, align 1
  %18 = sext i8 %17 to i32
  %19 = icmp sge i32 %18, 97
  br i1 %19, label %20, label %30

20:                                               ; preds = %16
  %21 = load i8, ptr %3, align 1
  %22 = sext i8 %21 to i32
  %23 = icmp sle i32 %22, 102
  br i1 %23, label %24, label %30

24:                                               ; preds = %20
  %25 = load i8, ptr %3, align 1
  %26 = sext i8 %25 to i32
  %27 = add i32 10, %26
  %28 = sub i32 %27, 97
  %29 = trunc i32 %28 to i8
  store i8 %29, ptr %2, align 1
  br label %45

30:                                               ; preds = %20, %16
  %31 = load i8, ptr %3, align 1
  %32 = sext i8 %31 to i32
  %33 = icmp sge i32 %32, 65
  br i1 %33, label %34, label %44

34:                                               ; preds = %30
  %35 = load i8, ptr %3, align 1
  %36 = sext i8 %35 to i32
  %37 = icmp sle i32 %36, 70
  br i1 %37, label %38, label %44

38:                                               ; preds = %34
  %39 = load i8, ptr %3, align 1
  %40 = sext i8 %39 to i32
  %41 = add i32 10, %40
  %42 = sub i32 %41, 65
  %43 = trunc i32 %42 to i8
  store i8 %43, ptr %2, align 1
  br label %45

44:                                               ; preds = %34, %30
  store i8 0, ptr %2, align 1
  br label %45

45:                                               ; preds = %44, %38, %24, %11
  %46 = load i8, ptr %2, align 1
  ret i8 %46
}

; Function Attrs: null_pointer_is_valid sspstrong uwtable
define internal zeroext i1 @check_valid_key_string(ptr noundef %0, ptr noundef %1, ptr noundef %2) #0 {
  %4 = alloca i1, align 1
  %5 = alloca ptr, align 8
  %6 = alloca ptr, align 8
  %7 = alloca ptr, align 8
  %8 = alloca i32, align 4
  %9 = alloca i32, align 4
  %10 = alloca i32, align 4
  %11 = alloca i32, align 4
  %12 = alloca i8, align 1
  store ptr %0, ptr %5, align 8
  store ptr %1, ptr %6, align 8
  store ptr %2, ptr %7, align 8
  call void @llvm.lifetime.start.p0(i64 4, ptr %8) #15
  call void @llvm.lifetime.start.p0(i64 4, ptr %9) #15
  store i32 0, ptr %9, align 4
  call void @llvm.lifetime.start.p0(i64 4, ptr %10) #15
  %13 = load ptr, ptr %5, align 8
  %14 = call i64 @strlen(ptr noundef %13) #17
  %15 = trunc i64 %14 to i32
  store i32 %15, ptr %10, align 4
  %16 = load i32, ptr %10, align 4
  %17 = icmp ult i32 %16, 32
  br i1 %17, label %18, label %27

18:                                               ; preds = %3
  %19 = load i32, ptr %10, align 4
  %20 = icmp ugt i32 %19, 0
  br i1 %20, label %21, label %26

21:                                               ; preds = %18
  %22 = load ptr, ptr %5, align 8
  %23 = load i32, ptr %10, align 4
  %24 = call noalias ptr (ptr, ptr, ...) @wmem_strdup_printf(ptr noundef null, ptr noundef @.str.238, ptr noundef %22, i32 noundef %23)
  %25 = load ptr, ptr %7, align 8
  store ptr %24, ptr %25, align 8
  br label %26

26:                                               ; preds = %21, %18
  store i1 false, ptr %4, align 1
  store i32 1, ptr %11, align 4
  br label %111

27:                                               ; preds = %3
  store i32 0, ptr %8, align 4
  br label %28

28:                                               ; preds = %91, %27
  %29 = load i32, ptr %8, align 4
  %30 = load i32, ptr %10, align 4
  %31 = icmp ult i32 %29, %30
  br i1 %31, label %32, label %35

32:                                               ; preds = %28
  %33 = load i32, ptr %9, align 4
  %34 = icmp ult i32 %33, 32
  br label %35

35:                                               ; preds = %32, %28
  %36 = phi i1 [ false, %28 ], [ %34, %32 ]
  br i1 %36, label %37, label %94

37:                                               ; preds = %35
  call void @llvm.lifetime.start.p0(i64 1, ptr %12) #15
  %38 = load ptr, ptr %5, align 8
  %39 = load i32, ptr %8, align 4
  %40 = zext i32 %39 to i64
  %41 = getelementptr i8, ptr %38, i64 %40
  %42 = load i8, ptr %41, align 1
  store i8 %42, ptr %12, align 1
  %43 = load i8, ptr %12, align 1
  %44 = sext i8 %43 to i32
  %45 = icmp eq i32 %44, 32
  br i1 %45, label %50, label %46

46:                                               ; preds = %37
  %47 = load i8, ptr %12, align 1
  %48 = sext i8 %47 to i32
  %49 = icmp eq i32 %48, 45
  br i1 %49, label %50, label %51

50:                                               ; preds = %46, %37
  store i32 4, ptr %11, align 4
  br label %88

51:                                               ; preds = %46
  %52 = load i8, ptr %12, align 1
  %53 = sext i8 %52 to i32
  %54 = icmp sge i32 %53, 48
  br i1 %54, label %55, label %59

55:                                               ; preds = %51
  %56 = load i8, ptr %12, align 1
  %57 = sext i8 %56 to i32
  %58 = icmp sle i32 %57, 57
  br i1 %58, label %75, label %59

59:                                               ; preds = %55, %51
  %60 = load i8, ptr %12, align 1
  %61 = sext i8 %60 to i32
  %62 = icmp sge i32 %61, 97
  br i1 %62, label %63, label %67

63:                                               ; preds = %59
  %64 = load i8, ptr %12, align 1
  %65 = sext i8 %64 to i32
  %66 = icmp sle i32 %65, 102
  br i1 %66, label %75, label %67

67:                                               ; preds = %63, %59
  %68 = load i8, ptr %12, align 1
  %69 = sext i8 %68 to i32
  %70 = icmp sge i32 %69, 65
  br i1 %70, label %71, label %82

71:                                               ; preds = %67
  %72 = load i8, ptr %12, align 1
  %73 = sext i8 %72 to i32
  %74 = icmp sle i32 %73, 70
  br i1 %74, label %75, label %82

75:                                               ; preds = %71, %63, %55
  %76 = load i8, ptr %12, align 1
  %77 = load ptr, ptr %6, align 8
  %78 = load i32, ptr %9, align 4
  %79 = add i32 %78, 1
  store i32 %79, ptr %9, align 4
  %80 = zext i32 %78 to i64
  %81 = getelementptr i8, ptr %77, i64 %80
  store i8 %76, ptr %81, align 1
  br label %87

82:                                               ; preds = %71, %67
  %83 = load i8, ptr %12, align 1
  %84 = sext i8 %83 to i32
  %85 = call noalias ptr (ptr, ptr, ...) @wmem_strdup_printf(ptr noundef null, ptr noundef @.str.239, i32 noundef %84)
  %86 = load ptr, ptr %7, align 8
  store ptr %85, ptr %86, align 8
  store i1 false, ptr %4, align 1
  store i32 1, ptr %11, align 4
  br label %88

87:                                               ; preds = %75
  store i32 0, ptr %11, align 4
  br label %88

88:                                               ; preds = %87, %82, %50
  call void @llvm.lifetime.end.p0(i64 1, ptr %12) #15
  %89 = load i32, ptr %11, align 4
  switch i32 %89, label %111 [
    i32 0, label %90
    i32 4, label %91
  ]

90:                                               ; preds = %88
  br label %91

91:                                               ; preds = %90, %88
  %92 = load i32, ptr %8, align 4
  %93 = add i32 %92, 1
  store i32 %93, ptr %8, align 4
  br label %28, !llvm.loop !13

94:                                               ; preds = %35
  %95 = load i32, ptr %8, align 4
  %96 = load i32, ptr %10, align 4
  %97 = icmp ult i32 %95, %96
  br i1 %97, label %98, label %102

98:                                               ; preds = %94
  %99 = load ptr, ptr %5, align 8
  %100 = call noalias ptr (ptr, ptr, ...) @wmem_strdup_printf(ptr noundef null, ptr noundef @.str.240, ptr noundef %99)
  %101 = load ptr, ptr %7, align 8
  store ptr %100, ptr %101, align 8
  store i1 false, ptr %4, align 1
  store i32 1, ptr %11, align 4
  br label %111

102:                                              ; preds = %94
  %103 = load i32, ptr %9, align 4
  %104 = icmp ne i32 %103, 32
  br i1 %104, label %105, label %110

105:                                              ; preds = %102
  %106 = load ptr, ptr %5, align 8
  %107 = load i32, ptr %9, align 4
  %108 = call noalias ptr (ptr, ptr, ...) @wmem_strdup_printf(ptr noundef null, ptr noundef @.str.241, ptr noundef %106, i32 noundef %107)
  %109 = load ptr, ptr %7, align 8
  store ptr %108, ptr %109, align 8
  store i1 false, ptr %4, align 1
  store i32 1, ptr %11, align 4
  br label %111

110:                                              ; preds = %102
  store i1 true, ptr %4, align 1
  store i32 1, ptr %11, align 4
  br label %111

111:                                              ; preds = %110, %105, %98, %88, %26
  call void @llvm.lifetime.end.p0(i64 4, ptr %10) #15
  call void @llvm.lifetime.end.p0(i64 4, ptr %9) #15
  call void @llvm.lifetime.end.p0(i64 4, ptr %8) #15
  %112 = load i1, ptr %4, align 1
  ret i1 %112
}

; Function Attrs: null_pointer_is_valid sspstrong uwtable
define internal void @update_key_from_string(ptr noundef %0, ptr noundef %1, ptr noundef %2, ptr noundef %3) #0 {
  %5 = alloca ptr, align 8
  %6 = alloca ptr, align 8
  %7 = alloca ptr, align 8
  %8 = alloca ptr, align 8
  %9 = alloca i32, align 4
  %10 = alloca [32 x i8], align 16
  store ptr %0, ptr %5, align 8
  store ptr %1, ptr %6, align 8
  store ptr %2, ptr %7, align 8
  store ptr %3, ptr %8, align 8
  call void @llvm.lifetime.start.p0(i64 4, ptr %9) #15
  call void @llvm.lifetime.start.p0(i64 32, ptr %10) #15
  %11 = load ptr, ptr %5, align 8
  %12 = getelementptr inbounds [32 x i8], ptr %10, i64 0, i64 0
  %13 = load ptr, ptr %8, align 8
  %14 = call zeroext i1 @check_valid_key_string(ptr noundef %11, ptr noundef %12, ptr noundef %13)
  br i1 %14, label %17, label %15

15:                                               ; preds = %4
  %16 = load ptr, ptr %7, align 8
  store i8 0, ptr %16, align 1
  br label %48

17:                                               ; preds = %4
  store i32 0, ptr %9, align 4
  br label %18

18:                                               ; preds = %43, %17
  %19 = load i32, ptr %9, align 4
  %20 = icmp slt i32 %19, 32
  br i1 %20, label %21, label %46

21:                                               ; preds = %18
  %22 = load i32, ptr %9, align 4
  %23 = sext i32 %22 to i64
  %24 = getelementptr [32 x i8], ptr %10, i64 0, i64 %23
  %25 = load i8, ptr %24, align 1
  %26 = call zeroext i8 @hex_ascii_to_binary(i8 noundef signext %25)
  %27 = zext i8 %26 to i32
  %28 = shl i32 %27, 4
  %29 = load i32, ptr %9, align 4
  %30 = add i32 %29, 1
  %31 = sext i32 %30 to i64
  %32 = getelementptr [32 x i8], ptr %10, i64 0, i64 %31
  %33 = load i8, ptr %32, align 1
  %34 = call zeroext i8 @hex_ascii_to_binary(i8 noundef signext %33)
  %35 = zext i8 %34 to i32
  %36 = add i32 %28, %35
  %37 = trunc i32 %36 to i8
  %38 = load ptr, ptr %6, align 8
  %39 = load i32, ptr %9, align 4
  %40 = sdiv i32 %39, 2
  %41 = sext i32 %40 to i64
  %42 = getelementptr i8, ptr %38, i64 %41
  store i8 %37, ptr %42, align 1
  br label %43

43:                                               ; preds = %21
  %44 = load i32, ptr %9, align 4
  %45 = add i32 %44, 2
  store i32 %45, ptr %9, align 4
  br label %18, !llvm.loop !6

46:                                               ; preds = %18
  %47 = load ptr, ptr %7, align 8
  store i8 1, ptr %47, align 1
  br label %48

48:                                               ; preds = %46, %15
  call void @llvm.lifetime.end.p0(i64 32, ptr %10) #15
  call void @llvm.lifetime.end.p0(i64 4, ptr %9) #15
  ret void
}