; Function Attrs: null_pointer_is_valid sspstrong uwtable
define internal fastcc void @update_key_from_string(ptr noundef %0, ptr noundef writeonly captures(none) %1, ptr noundef writeonly captures(none) %2, ptr noundef writeonly captures(none) %3) unnamed_addr #0 {
  %5 = alloca [32 x i8], align 16
  call void @llvm.lifetime.start.p0(i64 32, ptr nonnull %5) #15
  %6 = tail call i64 @strlen(ptr noundef %0) #17
  %7 = trunc i64 %6 to i32
  %8 = icmp ult i32 %7, 32
  br i1 %8, label %10, label %.preheader.preheader.i

.preheader.preheader.i:                           ; preds = %4
  %9 = and i64 %6, 4294967295
  br label %.preheader.i

10:                                               ; preds = %4
  %.not52.i = icmp eq i32 %7, 0
  br i1 %.not52.i, label %check_valid_key_string.exit.thread, label %11

11:                                               ; preds = %10
  %12 = tail call noalias ptr (ptr, ptr, ...) @wmem_strdup_printf(ptr noundef null, ptr noundef nonnull @.str.238, ptr noundef %0, i32 noundef %7)
  br label %.sink.split.i

.preheader.i:                                     ; preds = %24, %.preheader.preheader.i
  %indvars.iv.i = phi i64 [ 0, %.preheader.preheader.i ], [ %indvars.iv.next.i, %24 ]
  %.04761.i = phi i32 [ 0, %.preheader.preheader.i ], [ %.148.ph.i, %24 ]
  %13 = getelementptr i8, ptr %0, i64 %indvars.iv.i
  %14 = load i8, ptr %13, align 1
  switch i8 %14, label %15 [
    i8 45, label %24
    i8 32, label %24
  ]

15:                                               ; preds = %.preheader.i
  %16 = add i8 %14, -48
  %or.cond5.i = icmp ult i8 %16, 10
  br i1 %or.cond5.i, label %17, label %switch.early.test.i

switch.early.test.i:                              ; preds = %15
  switch i8 %14, label %21 [
    i8 102, label %17
    i8 101, label %17
    i8 100, label %17
    i8 99, label %17
    i8 98, label %17
    i8 97, label %17
    i8 70, label %17
    i8 69, label %17
    i8 68, label %17
    i8 67, label %17
    i8 66, label %17
    i8 65, label %17
  ]

17:                                               ; preds = %switch.early.test.i, %switch.early.test.i, %switch.early.test.i, %switch.early.test.i, %switch.early.test.i, %switch.early.test.i, %switch.early.test.i, %switch.early.test.i, %switch.early.test.i, %switch.early.test.i, %switch.early.test.i, %switch.early.test.i, %15
  %18 = add nuw nsw i32 %.04761.i, 1
  %19 = zext nneg i32 %.04761.i to i64
  %20 = getelementptr i8, ptr %5, i64 %19
  store i8 %14, ptr %20, align 1
  br label %24

21:                                               ; preds = %switch.early.test.i
  %22 = sext i8 %14 to i32
  %23 = tail call noalias ptr (ptr, ptr, ...) @wmem_strdup_printf(ptr noundef null, ptr noundef nonnull @.str.239, i32 noundef %22)
  br label %.sink.split.i

24:                                               ; preds = %17, %.preheader.i, %.preheader.i
  %.148.ph.i = phi i32 [ %.04761.i, %.preheader.i ], [ %.04761.i, %.preheader.i ], [ %18, %17 ]
  %indvars.iv.next.i = add nuw nsw i64 %indvars.iv.i, 1
  %25 = icmp samesign ult i64 %indvars.iv.next.i, %9
  %26 = icmp samesign ult i32 %.148.ph.i, 32
  %27 = select i1 %25, i1 %26, i1 false
  br i1 %27, label %.preheader.i, label %28, !llvm.loop !6

28:                                               ; preds = %24
  br i1 %25, label %29, label %31

29:                                               ; preds = %28
  %30 = tail call noalias ptr (ptr, ptr, ...) @wmem_strdup_printf(ptr noundef null, ptr noundef nonnull @.str.240, ptr noundef %0)
  br label %.sink.split.i

31:                                               ; preds = %28
  %.not.i = icmp eq i32 %.148.ph.i, 32
  br i1 %.not.i, label %check_valid_key_string.exit.preheader, label %32

32:                                               ; preds = %31
  %33 = tail call noalias ptr (ptr, ptr, ...) @wmem_strdup_printf(ptr noundef null, ptr noundef nonnull @.str.241, ptr noundef %0, i32 noundef %.148.ph.i)
  br label %.sink.split.i

.sink.split.i:                                    ; preds = %32, %29, %21, %11
  %.sink.i = phi ptr [ %23, %21 ], [ %12, %11 ], [ %33, %32 ], [ %30, %29 ]
  store ptr %.sink.i, ptr %3, align 8
  br label %check_valid_key_string.exit.thread

check_valid_key_string.exit.preheader:            ; preds = %31, %hex_ascii_to_binary.exit16
  %indvars.iv = phi i64 [ %indvars.iv.next, %hex_ascii_to_binary.exit16 ], [ 0, %31 ]
  %34 = getelementptr [32 x i8], ptr %5, i64 0, i64 %indvars.iv
  %35 = load i8, ptr %34, align 2
  %36 = add i8 %35, -48
  %or.cond.i = icmp ult i8 %36, 10
  br i1 %or.cond.i, label %hex_ascii_to_binary.exit, label %37

37:                                               ; preds = %check_valid_key_string.exit.preheader
  %38 = add i8 %35, -97
  %or.cond5.i9 = icmp ult i8 %38, 6
  br i1 %or.cond5.i9, label %39, label %41

39:                                               ; preds = %37
  %40 = add nsw i8 %35, -87
  br label %hex_ascii_to_binary.exit

41:                                               ; preds = %37
  %42 = add i8 %35, -65
  %or.cond8.i = icmp ult i8 %42, 6
  %43 = add nsw i8 %35, -55
  %spec.select.i = select i1 %or.cond8.i, i8 %43, i8 0
  br label %hex_ascii_to_binary.exit

hex_ascii_to_binary.exit:                         ; preds = %check_valid_key_string.exit.preheader, %39, %41
  %.0.i10 = phi i8 [ %40, %39 ], [ %spec.select.i, %41 ], [ %36, %check_valid_key_string.exit.preheader ]
  %44 = shl nuw i8 %.0.i10, 4
  %45 = or disjoint i64 %indvars.iv, 1
  %46 = getelementptr [32 x i8], ptr %5, i64 0, i64 %45
  %47 = load i8, ptr %46, align 1
  %48 = add i8 %47, -48
  %or.cond.i11 = icmp ult i8 %48, 10
  br i1 %or.cond.i11, label %hex_ascii_to_binary.exit16, label %49

49:                                               ; preds = %hex_ascii_to_binary.exit
  %50 = add i8 %47, -97
  %or.cond5.i12 = icmp ult i8 %50, 6
  br i1 %or.cond5.i12, label %51, label %53

51:                                               ; preds = %49
  %52 = add nsw i8 %47, -87
  br label %hex_ascii_to_binary.exit16

53:                                               ; preds = %49
  %54 = add i8 %47, -65
  %or.cond8.i13 = icmp ult i8 %54, 6
  %55 = add nsw i8 %47, -55
  %spec.select.i14 = select i1 %or.cond8.i13, i8 %55, i8 0
  br label %hex_ascii_to_binary.exit16

hex_ascii_to_binary.exit16:                       ; preds = %hex_ascii_to_binary.exit, %51, %53
  %.0.i15 = phi i8 [ %52, %51 ], [ %spec.select.i14, %53 ], [ %48, %hex_ascii_to_binary.exit ]
  %56 = add nuw nsw i8 %.0.i15, %44
  %57 = lshr exact i64 %indvars.iv, 1
  %58 = getelementptr i8, ptr %1, i64 %57
  store i8 %56, ptr %58, align 1
  %indvars.iv.next = add nuw nsw i64 %indvars.iv, 2
  %59 = icmp samesign ult i64 %indvars.iv, 30
  br i1 %59, label %check_valid_key_string.exit.preheader, label %check_valid_key_string.exit.thread, !llvm.loop !8

check_valid_key_string.exit.thread:               ; preds = %hex_ascii_to_binary.exit16, %.sink.split.i, %10
  %storemerge = phi i8 [ 0, %10 ], [ 0, %.sink.split.i ], [ 1, %hex_ascii_to_binary.exit16 ]
  store i8 %storemerge, ptr %2, align 1
  call void @llvm.lifetime.end.p0(i64 32, ptr nonnull %5) #15
  ret void
}